target datalayout = "e-m:e-p270:32:32-p271:32:32-p272:64:64-i64:64-i128:128-f80:128-n8:16:32:64-S128"
target triple = "x86_64-pc-linux-gnu"

%struct._stat_tap_table_ui = type { i32, ptr, ptr, ptr, ptr, ptr, ptr, ptr, ptr, i64, ptr, i64, ptr, ptr, i32 }
%struct._value_string = type { i32, ptr }
%struct._stat_tap_table_item_type = type { i32, %union.anon, %union.anon.0 }
%union.anon = type { ptr }
%union.anon.0 = type { ptr }

@.str.2 = private unnamed_addr constant [35 x i8] c"ComponentStatusProtocol Statistics\00", align 1
@message_type_values = internal constant [2 x %struct._value_string] [%struct._value_string { i32 1, ptr @.str.8 }, %struct._value_string zeroinitializer], align 16

; Function Attrs: nounwind uwtable
define internal void @componentstatusprotocol_stat_init(ptr noundef %0) #0 {
  %2 = alloca ptr, align 8
  %3 = alloca ptr, align 8
  %4 = alloca i32, align 4
  %5 = alloca ptr, align 8
  %6 = alloca i32, align 4
  %7 = alloca [10 x %struct._stat_tap_table_item_type], align 16
  store ptr %0, ptr %2, align 8
  store ptr @.str.2, ptr %3, align 8
  store i32 10, ptr %4, align 4
  store i32 0, ptr %6, align 4
  %8 = load ptr, ptr %2, align 8
  %9 = load ptr, ptr %3, align 8
  %10 = call ptr @stat_tap_find_table(ptr noundef %8, ptr noundef %9)
  store ptr %10, ptr %5, align 8
  %11 = load ptr, ptr %5, align 8
  %12 = icmp ne ptr %11, null
  br i1 %12, label %13, label %24

13:                                               ; preds = %1
  %14 = load ptr, ptr %2, align 8
  %15 = getelementptr inbounds %struct._stat_tap_table_ui, ptr %14, i32 0, i32 6
  %16 = load ptr, ptr %15, align 8
  %17 = icmp ne ptr %16, null
  br i1 %17, label %18, label %23

18:                                               ; preds = %13
  %19 = load ptr, ptr %2, align 8
  %20 = getelementptr inbounds %struct._stat_tap_table_ui, ptr %19, i32 0, i32 6
  %21 = load ptr, ptr %20, align 8
  %22 = load ptr, ptr %5, align 8
  call void %21(ptr noundef %22)
  br label %23

23:                                               ; preds = %18, %13
  br label %90

24:                                               ; preds = %1
  %25 = load ptr, ptr %3, align 8
  %26 = load i32, ptr %4, align 4
  %27 = call ptr @stat_tap_init_table(ptr noundef %25, i32 noundef %26, i32 noundef 0, ptr noundef null)
  store ptr %27, ptr %5, align 8
  %28 = load ptr, ptr %2, align 8
  %29 = load ptr, ptr %5, align 8
  call void @stat_tap_add_table(ptr noundef %28, ptr noundef %29)
  %30 = getelementptr inbounds [10 x %struct._stat_tap_table_item_type], ptr %7, i64 0, i64 0
  call void @llvm.memset.p0.i64(ptr align 16 %30, i8 0, i64 240, i1 false)
  br label %31

31:                                               ; preds = %38, %24
  %32 = load i32, ptr %6, align 4
  %33 = sext i32 %32 to i64
  %34 = getelementptr [2 x %struct._value_string], ptr @message_type_values, i64 0, i64 %33
  %35 = getelementptr inbounds %struct._value_string, ptr %34, i32 0, i32 1
  %36 = load ptr, ptr %35, align 8
  %37 = icmp ne ptr %36, null
  br i1 %37, label %38, label %90

38:                                               ; preds = %31
  %39 = getelementptr [10 x %struct._stat_tap_table_item_type], ptr %7, i64 0, i64 0
  %40 = getelementptr inbounds %struct._stat_tap_table_item_type, ptr %39, i32 0, i32 0
  store i32 3, ptr %40, align 16
  %41 = load i32, ptr %6, align 4
  %42 = sext i32 %41 to i64
  %43 = getelementptr [2 x %struct._value_string], ptr @message_type_values, i64 0, i64 %42
  %44 = getelementptr inbounds %struct._value_string, ptr %43, i32 0, i32 1
  %45 = load ptr, ptr %44, align 8
  %46 = getelementptr [10 x %struct._stat_tap_table_item_type], ptr %7, i64 0, i64 0
  %47 = getelementptr inbounds %struct._stat_tap_table_item_type, ptr %46, i32 0, i32 1
  store ptr %45, ptr %47, align 8
  %48 = getelementptr [10 x %struct._stat_tap_table_item_type], ptr %7, i64 0, i64 1
  %49 = getelementptr inbounds %struct._stat_tap_table_item_type, ptr %48, i32 0, i32 0
  store i32 1, ptr %49, align 8
  %50 = getelementptr [10 x %struct._stat_tap_table_item_type], ptr %7, i64 0, i64 1
  %51 = getelementptr inbounds %struct._stat_tap_table_item_type, ptr %50, i32 0, i32 1
  store i32 0, ptr %51, align 8
  %52 = getelementptr [10 x %struct._stat_tap_table_item_type], ptr %7, i64 0, i64 2
  %53 = getelementptr inbounds %struct._stat_tap_table_item_type, ptr %52, i32 0, i32 0
  store i32 0, ptr %53, align 16
  %54 = getelementptr [10 x %struct._stat_tap_table_item_type], ptr %7, i64 0, i64 2
  %55 = getelementptr inbounds %struct._stat_tap_table_item_type, ptr %54, i32 0, i32 1
  store double -1.000000e+00, ptr %55, align 8
  %56 = getelementptr [10 x %struct._stat_tap_table_item_type], ptr %7, i64 0, i64 3
  %57 = getelementptr inbounds %struct._stat_tap_table_item_type, ptr %56, i32 0, i32 0
  store i32 1, ptr %57, align 8
  %58 = getelementptr [10 x %struct._stat_tap_table_item_type], ptr %7, i64 0, i64 3
  %59 = getelementptr inbounds %struct._stat_tap_table_item_type, ptr %58, i32 0, i32 1
  store i32 0, ptr %59, align 8
  %60 = getelementptr [10 x %struct._stat_tap_table_item_type], ptr %7, i64 0, i64 4
  %61 = getelementptr inbounds %struct._stat_tap_table_item_type, ptr %60, i32 0, i32 0
  store i32 0, ptr %61, align 16
  %62 = getelementptr [10 x %struct._stat_tap_table_item_type], ptr %7, i64 0, i64 4
  %63 = getelementptr inbounds %struct._stat_tap_table_item_type, ptr %62, i32 0, i32 1
  store double -1.000000e+00, ptr %63, align 8
  %64 = getelementptr [10 x %struct._stat_tap_table_item_type], ptr %7, i64 0, i64 5
  %65 = getelementptr inbounds %struct._stat_tap_table_item_type, ptr %64, i32 0, i32 0
  store i32 0, ptr %65, align 8
  %66 = getelementptr [10 x %struct._stat_tap_table_item_type], ptr %7, i64 0, i64 5
  %67 = getelementptr inbounds %struct._stat_tap_table_item_type, ptr %66, i32 0, i32 1
  store double 0x7FEFFFFFFFFFFFFF, ptr %67, align 8
  %68 = getelementptr [10 x %struct._stat_tap_table_item_type], ptr %7, i64 0, i64 6
  %69 = getelementptr inbounds %struct._stat_tap_table_item_type, ptr %68, i32 0, i32 0
  store i32 0, ptr %69, align 16
  %70 = getelementptr [10 x %struct._stat_tap_table_item_type], ptr %7, i64 0, i64 6
  %71 = getelementptr inbounds %struct._stat_tap_table_item_type, ptr %70, i32 0, i32 1
  store double 0x10000000000000, ptr %71, align 8
  %72 = getelementptr [10 x %struct._stat_tap_table_item_type], ptr %7, i64 0, i64 7
  %73 = getelementptr inbounds %struct._stat_tap_table_item_type, ptr %72, i32 0, i32 0
  store i32 0, ptr %73, align 8
  %74 = getelementptr [10 x %struct._stat_tap_table_item_type], ptr %7, i64 0, i64 7
  %75 = getelementptr inbounds %struct._stat_tap_table_item_type, ptr %74, i32 0, i32 1
  store double -1.000000e+00, ptr %75, align 8
  %76 = getelementptr [10 x %struct._stat_tap_table_item_type], ptr %7, i64 0, i64 8
  %77 = getelementptr inbounds %struct._stat_tap_table_item_type, ptr %76, i32 0, i32 0
  store i32 0, ptr %77, align 16
  %78 = getelementptr [10 x %struct._stat_tap_table_item_type], ptr %7, i64 0, i64 8
  %79 = getelementptr inbounds %struct._stat_tap_table_item_type, ptr %78, i32 0, i32 1
  store double -1.000000e+00, ptr %79, align 8
  %80 = getelementptr [10 x %struct._stat_tap_table_item_type], ptr %7, i64 0, i64 9
  %81 = getelementptr inbounds %struct._stat_tap_table_item_type, ptr %80, i32 0, i32 0
  store i32 0, ptr %81, align 8
  %82 = getelementptr [10 x %struct._stat_tap_table_item_type], ptr %7, i64 0, i64 9
  %83 = getelementptr inbounds %struct._stat_tap_table_item_type, ptr %82, i32 0, i32 1
  store double -1.000000e+00, ptr %83, align 8
  %84 = load ptr, ptr %5, align 8
  %85 = load i32, ptr %6, align 4
  %86 = load i32, ptr %4, align 4
  %87 = getelementptr inbounds [10 x %struct._stat_tap_table_item_type], ptr %7, i64 0, i64 0
  call void @stat_tap_init_table_row(ptr noundef %84, i32 noundef %85, i32 noundef %86, ptr noundef %87)
  %88 = load i32, ptr %6, align 4
  %89 = add i32 %88, 1
  store i32 %89, ptr %6, align 4
  br label %31, !llvm.loop !4

90:                                               ; preds = %31, %23
  ret void
}