; Function Attrs: nounwind uwtable
define internal void @componentstatusprotocol_stat_init(ptr noundef %0) #0 {
  %2 = alloca [10 x %struct._stat_tap_table_item_type], align 16
  %3 = tail call ptr @stat_tap_find_table(ptr noundef %0, ptr noundef nonnull @.str.2) #4
  %.not = icmp eq ptr %3, null
  br i1 %.not, label %.loopexit.loopexit, label %4

4:                                                ; preds = %1
  %5 = getelementptr inbounds nuw i8, ptr %0, i64 48
  %6 = load ptr, ptr %5, align 8
  %.not18 = icmp eq ptr %6, null
  br i1 %.not18, label %.loopexit, label %7

7:                                                ; preds = %4
  tail call void %6(ptr noundef nonnull %3) #4
  br label %.loopexit

.loopexit.loopexit:                               ; preds = %1
  %8 = tail call ptr @stat_tap_init_table(ptr noundef nonnull @.str.2, i32 noundef 10, i32 noundef 0, ptr noundef null) #4
  tail call void @stat_tap_add_table(ptr noundef %0, ptr noundef %8) #4
  call void @llvm.memset.p0.i64(ptr noundef nonnull align 16 dereferenceable(240) %2, i8 0, i64 240, i1 false)
  %9 = getelementptr inbounds nuw i8, ptr %2, i64 8
  %10 = getelementptr inbounds nuw i8, ptr %2, i64 24
  %11 = getelementptr inbounds nuw i8, ptr %2, i64 48
  %12 = getelementptr inbounds nuw i8, ptr %2, i64 56
  %13 = getelementptr inbounds nuw i8, ptr %2, i64 72
  %14 = getelementptr inbounds nuw i8, ptr %2, i64 96
  %15 = getelementptr inbounds nuw i8, ptr %2, i64 104
  %16 = getelementptr inbounds nuw i8, ptr %2, i64 128
  %17 = getelementptr inbounds nuw i8, ptr %2, i64 152
  %18 = getelementptr inbounds nuw i8, ptr %2, i64 176
  %19 = getelementptr inbounds nuw i8, ptr %2, i64 200
  %20 = getelementptr inbounds nuw i8, ptr %2, i64 224
  store i32 3, ptr %2, align 16
  store ptr @.str.8, ptr %9, align 8
  store i32 1, ptr %10, align 8
  store i32 0, ptr %11, align 16
  store double -1.000000e+00, ptr %12, align 8
  store i32 1, ptr %13, align 8
  store i32 0, ptr %14, align 16
  store double -1.000000e+00, ptr %15, align 8
  store double 0x7FEFFFFFFFFFFFFF, ptr %16, align 16
  store double 0x10000000000000, ptr %17, align 8
  store double -1.000000e+00, ptr %18, align 16
  store double -1.000000e+00, ptr %19, align 8
  store double -1.000000e+00, ptr %20, align 16
  call void @stat_tap_init_table_row(ptr noundef %8, i32 noundef 0, i32 noundef 10, ptr noundef nonnull %2) #4
  br label %.loopexit

.loopexit:                                        ; preds = %.loopexit.loopexit, %4, %7
  ret void
}